; Function Attrs: nounwind uwtable
define ptr @l_Std_Range_forIn_x27_loop___at_Lean_Elab_Term_elabAnonymousCtor___spec__5___boxed(ptr noundef %0, ptr noundef %1, ptr noundef %2, ptr noundef %3, ptr noundef %4, ptr noundef readnone captures(none) %5, ptr noundef readnone captures(none) %6, ptr noundef %7, ptr noundef %8, ptr noundef %9, ptr noundef %10, ptr noundef %11, ptr noundef %12, ptr noundef %13) local_unnamed_addr #0 {
  %15 = tail call ptr @l_Std_Range_forIn_x27_loop___at_Lean_Elab_Term_elabAnonymousCtor___spec__5(ptr poison, ptr noundef %1, ptr noundef %2, ptr noundef %3, ptr noundef %4, ptr poison, ptr poison, ptr poison, ptr poison, ptr noundef %9, ptr noundef %10, ptr noundef %11, ptr noundef %12, ptr noundef %13)
  %16 = ptrtoint ptr %12 to i64
  %17 = and i64 %16, 1
  %.not = icmp eq i64 %17, 0
  br i1 %.not, label %18, label %lean_dec.exit29

18:                                               ; preds = %14
  %19 = load i32, ptr %12, align 4, !tbaa !4
  %20 = icmp sgt i32 %19, 1
  br i1 %20, label %21, label %23, !prof !9

21:                                               ; preds = %18
  %22 = add nsw i32 %19, -1
  store i32 %22, ptr %12, align 4, !tbaa !4
  br label %lean_dec.exit29

23:                                               ; preds = %18
  %.not.i = icmp eq i32 %19, 0
  br i1 %.not.i, label %lean_dec.exit29, label %24

24:                                               ; preds = %23
  tail call void @lean_dec_ref_cold(ptr noundef nonnull %12) #6
  br label %lean_dec.exit29

lean_dec.exit29:                                  ; preds = %24, %23, %21, %14
  %25 = ptrtoint ptr %11 to i64
  %26 = and i64 %25, 1
  %.not44 = icmp eq i64 %26, 0
  br i1 %.not44, label %27, label %lean_dec.exit28

27:                                               ; preds = %lean_dec.exit29
  %28 = load i32, ptr %11, align 4, !tbaa !4
  %29 = icmp sgt i32 %28, 1
  br i1 %29, label %30, label %32, !prof !9

30:                                               ; preds = %27
  %31 = add nsw i32 %28, -1
  store i32 %31, ptr %11, align 4, !tbaa !4
  br label %lean_dec.exit28

32:                                               ; preds = %27
  %.not.i30 = icmp eq i32 %28, 0
  br i1 %.not.i30, label %lean_dec.exit28, label %33

33:                                               ; preds = %32
  tail call void @lean_dec_ref_cold(ptr noundef nonnull %11) #6
  br label %lean_dec.exit28

lean_dec.exit28:                                  ; preds = %33, %32, %30, %lean_dec.exit29
  %34 = ptrtoint ptr %10 to i64
  %35 = and i64 %34, 1
  %.not45 = icmp eq i64 %35, 0
  br i1 %.not45, label %36, label %lean_dec.exit27

36:                                               ; preds = %lean_dec.exit28
  %37 = load i32, ptr %10, align 4, !tbaa !4
  %38 = icmp sgt i32 %37, 1
  br i1 %38, label %39, label %41, !prof !9

39:                                               ; preds = %36
  %40 = add nsw i32 %37, -1
  store i32 %40, ptr %10, align 4, !tbaa !4
  br label %lean_dec.exit27

41:                                               ; preds = %36
  %.not.i32 = icmp eq i32 %37, 0
  br i1 %.not.i32, label %lean_dec.exit27, label %42

42:                                               ; preds = %41
  tail call void @lean_dec_ref_cold(ptr noundef nonnull %10) #6
  br label %lean_dec.exit27

lean_dec.exit27:                                  ; preds = %42, %41, %39, %lean_dec.exit28
  %43 = ptrtoint ptr %8 to i64
  %44 = and i64 %43, 1
  %.not46 = icmp eq i64 %44, 0
  br i1 %.not46, label %45, label %lean_dec.exit26

45:                                               ; preds = %lean_dec.exit27
  %46 = load i32, ptr %8, align 4, !tbaa !4
  %47 = icmp sgt i32 %46, 1
  br i1 %47, label %48, label %50, !prof !9

48:                                               ; preds = %45
  %49 = add nsw i32 %46, -1
  store i32 %49, ptr %8, align 4, !tbaa !4
  br label %lean_dec.exit26

50:                                               ; preds = %45
  %.not.i34 = icmp eq i32 %46, 0
  br i1 %.not.i34, label %lean_dec.exit26, label %51

51:                                               ; preds = %50
  tail call void @lean_dec_ref_cold(ptr noundef nonnull %8) #6
  br label %lean_dec.exit26

lean_dec.exit26:                                  ; preds = %51, %50, %48, %lean_dec.exit27
  %52 = ptrtoint ptr %7 to i64
  %53 = and i64 %52, 1
  %.not47 = icmp eq i64 %53, 0
  br i1 %.not47, label %54, label %lean_dec.exit25

54:                                               ; preds = %lean_dec.exit26
  %55 = load i32, ptr %7, align 4, !tbaa !4
  %56 = icmp sgt i32 %55, 1
  br i1 %56, label %57, label %59, !prof !9

57:                                               ; preds = %54
  %58 = add nsw i32 %55, -1
  store i32 %58, ptr %7, align 4, !tbaa !4
  br label %lean_dec.exit25

59:                                               ; preds = %54
  %.not.i36 = icmp eq i32 %55, 0
  br i1 %.not.i36, label %lean_dec.exit25, label %60

60:                                               ; preds = %59
  tail call void @lean_dec_ref_cold(ptr noundef nonnull %7) #6
  br label %lean_dec.exit25

lean_dec.exit25:                                  ; preds = %60, %59, %57, %lean_dec.exit26
  %61 = ptrtoint ptr %2 to i64
  %62 = and i64 %61, 1
  %.not48 = icmp eq i64 %62, 0
  br i1 %.not48, label %63, label %lean_dec.exit24

63:                                               ; preds = %lean_dec.exit25
  %64 = load i32, ptr %2, align 4, !tbaa !4
  %65 = icmp sgt i32 %64, 1
  br i1 %65, label %66, label %68, !prof !9

66:                                               ; preds = %63
  %67 = add nsw i32 %64, -1
  store i32 %67, ptr %2, align 4, !tbaa !4
  br label %lean_dec.exit24

68:                                               ; preds = %63
  %.not.i38 = icmp eq i32 %64, 0
  br i1 %.not.i38, label %lean_dec.exit24, label %69

69:                                               ; preds = %68
  tail call void @lean_dec_ref_cold(ptr noundef nonnull %2) #6
  br label %lean_dec.exit24

lean_dec.exit24:                                  ; preds = %69, %68, %66, %lean_dec.exit25
  %70 = ptrtoint ptr %1 to i64
  %71 = and i64 %70, 1
  %.not49 = icmp eq i64 %71, 0
  br i1 %.not49, label %72, label %lean_dec.exit23

72:                                               ; preds = %lean_dec.exit24
  %73 = load i32, ptr %1, align 4, !tbaa !4
  %74 = icmp sgt i32 %73, 1
  br i1 %74, label %75, label %77, !prof !9

75:                                               ; preds = %72
  %76 = add nsw i32 %73, -1
  store i32 %76, ptr %1, align 4, !tbaa !4
  br label %lean_dec.exit23

77:                                               ; preds = %72
  %.not.i40 = icmp eq i32 %73, 0
  br i1 %.not.i40, label %lean_dec.exit23, label %78

78:                                               ; preds = %77
  tail call void @lean_dec_ref_cold(ptr noundef nonnull %1) #6
  br label %lean_dec.exit23

lean_dec.exit23:                                  ; preds = %78, %77, %75, %lean_dec.exit24
  %79 = ptrtoint ptr %0 to i64
  %80 = and i64 %79, 1
  %.not50 = icmp eq i64 %80, 0
  br i1 %.not50, label %81, label %lean_dec.exit

81:                                               ; preds = %lean_dec.exit23
  %82 = load i32, ptr %0, align 4, !tbaa !4
  %83 = icmp sgt i32 %82, 1
  br i1 %83, label %84, label %86, !prof !9

84:                                               ; preds = %81
  %85 = add nsw i32 %82, -1
  store i32 %85, ptr %0, align 4, !tbaa !4
  br label %lean_dec.exit

86:                                               ; preds = %81
  %.not.i42 = icmp eq i32 %82, 0
  br i1 %.not.i42, label %lean_dec.exit, label %87

87:                                               ; preds = %86
  tail call void @lean_dec_ref_cold(ptr noundef nonnull %0) #6
  br label %lean_dec.exit

lean_dec.exit:                                    ; preds = %87, %86, %84, %lean_dec.exit23
  ret ptr %15
}